target datalayout = "e-m:e-p270:32:32-p271:32:32-p272:64:64-i64:64-i128:128-f80:128-n8:16:32:64-S128"
target triple = "x86_64-pc-linux-gnu"

%struct.expert_field = type { i32, i32 }

@hf_uftp_destlist = internal global i32 0, align 4
@hf_uftp_dest = internal global i32 0, align 4
@hf_uftp_register = internal global i32 0, align 4
@hf_uftp_register_func = internal global i32 0, align 4
@hf_uftp_register_reserved = internal global i32 0, align 4
@hf_uftp_register_destcount = internal global i32 0, align 4
@hf_uftp_register_premaster_len = internal global i32 0, align 4
@hf_uftp_register_rand2 = internal global i32 0, align 4
@hf_uftp_register_premaster = internal global i32 0, align 4
@ett_uftp_register = internal global i32 0, align 4
@ett_uftp_destlist = internal global i32 0, align 4
@ei_uftp_length_invalid = internal global %struct.expert_field zeroinitializer, align 4
@.str.289 = private unnamed_addr constant [19 x i8] c"Invalid length: %d\00", align 1
@.str.290 = private unnamed_addr constant [48 x i8] c"Invalid length, len = %d, keylen = %d, count=%d\00", align 1

; Function Attrs: null_pointer_is_valid sspstrong uwtable
define internal void @dissect_uftp_register(ptr noundef %0, ptr noundef %1, ptr noundef %2) #0 {
  %4 = alloca ptr, align 8
  %5 = alloca ptr, align 8
  %6 = alloca ptr, align 8
  %7 = alloca ptr, align 8
  %8 = alloca ptr, align 8
  %9 = alloca ptr, align 8
  %10 = alloca ptr, align 8
  %11 = alloca i32, align 4
  %12 = alloca i16, align 2
  %13 = alloca i16, align 2
  %14 = alloca i16, align 2
  %15 = alloca i32, align 4
  store ptr %0, ptr %4, align 8
  store ptr %1, ptr %5, align 8
  store ptr %2, ptr %6, align 8
  call void @llvm.lifetime.start.p0(i64 8, ptr %7) #3
  store ptr null, ptr %7, align 8
  call void @llvm.lifetime.start.p0(i64 8, ptr %8) #3
  store ptr null, ptr %8, align 8
  call void @llvm.lifetime.start.p0(i64 8, ptr %9) #3
  store ptr null, ptr %9, align 8
  call void @llvm.lifetime.start.p0(i64 8, ptr %10) #3
  store ptr null, ptr %10, align 8
  call void @llvm.lifetime.start.p0(i64 4, ptr %11) #3
  store i32 0, ptr %11, align 4
  call void @llvm.lifetime.start.p0(i64 2, ptr %12) #3
  call void @llvm.lifetime.start.p0(i64 2, ptr %13) #3
  call void @llvm.lifetime.start.p0(i64 2, ptr %14) #3
  %16 = load ptr, ptr %4, align 8
  %17 = call i32 @tvb_reported_length(ptr noundef %16)
  %18 = icmp ult i32 %17, 40
  br i1 %18, label %19, label %27

19:                                               ; preds = %3
  %20 = load ptr, ptr %6, align 8
  %21 = load ptr, ptr %5, align 8
  %22 = load ptr, ptr %4, align 8
  %23 = load i32, ptr %11, align 4
  %24 = load ptr, ptr %4, align 8
  %25 = call i32 @tvb_reported_length(ptr noundef %24)
  %26 = call ptr (ptr, ptr, ptr, ptr, i32, i32, ptr, ...) @proto_tree_add_expert_format(ptr noundef %20, ptr noundef %21, ptr noundef @ei_uftp_length_invalid, ptr noundef %22, i32 noundef %23, i32 noundef -1, ptr noundef @.str.289, i32 noundef %25)
  store i32 1, ptr %15, align 4
  br label %148

27:                                               ; preds = %3
  %28 = load ptr, ptr %4, align 8
  %29 = call zeroext i16 @tvb_get_ntohs(ptr noundef %28, i32 noundef 4)
  store i16 %29, ptr %12, align 2
  %30 = load ptr, ptr %4, align 8
  %31 = call zeroext i16 @tvb_get_ntohs(ptr noundef %30, i32 noundef 6)
  store i16 %31, ptr %13, align 2
  %32 = load ptr, ptr %4, align 8
  %33 = call i32 @tvb_reported_length(ptr noundef %32)
  %34 = load i16, ptr %13, align 2
  %35 = zext i16 %34 to i32
  %36 = add i32 40, %35
  %37 = load i16, ptr %12, align 2
  %38 = zext i16 %37 to i32
  %39 = mul i32 %38, 4
  %40 = add i32 %36, %39
  %41 = icmp slt i32 %33, %40
  br i1 %41, label %42, label %54

42:                                               ; preds = %27
  %43 = load ptr, ptr %6, align 8
  %44 = load ptr, ptr %5, align 8
  %45 = load ptr, ptr %4, align 8
  %46 = load i32, ptr %11, align 4
  %47 = load ptr, ptr %4, align 8
  %48 = call i32 @tvb_reported_length(ptr noundef %47)
  %49 = load i16, ptr %13, align 2
  %50 = zext i16 %49 to i32
  %51 = load i16, ptr %12, align 2
  %52 = zext i16 %51 to i32
  %53 = call ptr (ptr, ptr, ptr, ptr, i32, i32, ptr, ...) @proto_tree_add_expert_format(ptr noundef %43, ptr noundef %44, ptr noundef @ei_uftp_length_invalid, ptr noundef %45, i32 noundef %46, i32 noundef -1, ptr noundef @.str.290, i32 noundef %48, i32 noundef %50, i32 noundef %52)
  store i32 1, ptr %15, align 4
  br label %148

54:                                               ; preds = %27
  %55 = load ptr, ptr %6, align 8
  %56 = load i32, ptr @hf_uftp_register, align 4
  %57 = load ptr, ptr %4, align 8
  %58 = load i32, ptr %11, align 4
  %59 = call ptr @proto_tree_add_item(ptr noundef %55, i32 noundef %56, ptr noundef %57, i32 noundef %58, i32 noundef -1, i32 noundef 0)
  store ptr %59, ptr %7, align 8
  %60 = load ptr, ptr %7, align 8
  %61 = load i32, ptr @ett_uftp_register, align 4
  %62 = call ptr @proto_item_add_subtree(ptr noundef %60, i32 noundef %61)
  store ptr %62, ptr %9, align 8
  %63 = load ptr, ptr %9, align 8
  %64 = load i32, ptr @hf_uftp_register_func, align 4
  %65 = load ptr, ptr %4, align 8
  %66 = load i32, ptr %11, align 4
  %67 = call ptr @proto_tree_add_item(ptr noundef %63, i32 noundef %64, ptr noundef %65, i32 noundef %66, i32 noundef 1, i32 noundef 0)
  %68 = load i32, ptr %11, align 4
  %69 = add i32 %68, 1
  store i32 %69, ptr %11, align 4
  %70 = load ptr, ptr %9, align 8
  %71 = load i32, ptr @hf_uftp_register_reserved, align 4
  %72 = load ptr, ptr %4, align 8
  %73 = load i32, ptr %11, align 4
  %74 = call ptr @proto_tree_add_item(ptr noundef %70, i32 noundef %71, ptr noundef %72, i32 noundef %73, i32 noundef 3, i32 noundef 0)
  %75 = load i32, ptr %11, align 4
  %76 = add i32 %75, 3
  store i32 %76, ptr %11, align 4
  %77 = load ptr, ptr %9, align 8
  %78 = load i32, ptr @hf_uftp_register_destcount, align 4
  %79 = load ptr, ptr %4, align 8
  %80 = load i32, ptr %11, align 4
  %81 = call ptr @proto_tree_add_item(ptr noundef %77, i32 noundef %78, ptr noundef %79, i32 noundef %80, i32 noundef 2, i32 noundef 0)
  %82 = load i32, ptr %11, align 4
  %83 = add i32 %82, 2
  store i32 %83, ptr %11, align 4
  %84 = load ptr, ptr %9, align 8
  %85 = load i32, ptr @hf_uftp_register_premaster_len, align 4
  %86 = load ptr, ptr %4, align 8
  %87 = load i32, ptr %11, align 4
  %88 = call ptr @proto_tree_add_item(ptr noundef %84, i32 noundef %85, ptr noundef %86, i32 noundef %87, i32 noundef 2, i32 noundef 0)
  %89 = load i32, ptr %11, align 4
  %90 = add i32 %89, 2
  store i32 %90, ptr %11, align 4
  %91 = load ptr, ptr %9, align 8
  %92 = load i32, ptr @hf_uftp_register_rand2, align 4
  %93 = load ptr, ptr %4, align 8
  %94 = load i32, ptr %11, align 4
  %95 = call ptr @proto_tree_add_item(ptr noundef %91, i32 noundef %92, ptr noundef %93, i32 noundef %94, i32 noundef 32, i32 noundef 0)
  %96 = load i32, ptr %11, align 4
  %97 = add i32 %96, 32
  store i32 %97, ptr %11, align 4
  %98 = load i16, ptr %13, align 2
  %99 = zext i16 %98 to i32
  %100 = icmp sgt i32 %99, 0
  br i1 %100, label %101, label %113

101:                                              ; preds = %54
  %102 = load ptr, ptr %9, align 8
  %103 = load i32, ptr @hf_uftp_register_premaster, align 4
  %104 = load ptr, ptr %4, align 8
  %105 = load i32, ptr %11, align 4
  %106 = load i16, ptr %13, align 2
  %107 = zext i16 %106 to i32
  %108 = call ptr @proto_tree_add_item(ptr noundef %102, i32 noundef %103, ptr noundef %104, i32 noundef %105, i32 noundef %107, i32 noundef 0)
  %109 = load i16, ptr %13, align 2
  %110 = zext i16 %109 to i32
  %111 = load i32, ptr %11, align 4
  %112 = add i32 %111, %110
  store i32 %112, ptr %11, align 4
  br label %113

113:                                              ; preds = %101, %54
  %114 = load i16, ptr %12, align 2
  %115 = zext i16 %114 to i32
  %116 = icmp sgt i32 %115, 0
  br i1 %116, label %117, label %129

117:                                              ; preds = %113
  %118 = load ptr, ptr %9, align 8
  %119 = load i32, ptr @hf_uftp_destlist, align 4
  %120 = load ptr, ptr %4, align 8
  %121 = load i32, ptr %11, align 4
  %122 = load i16, ptr %12, align 2
  %123 = zext i16 %122 to i32
  %124 = mul i32 %123, 4
  %125 = call ptr @proto_tree_add_item(ptr noundef %118, i32 noundef %119, ptr noundef %120, i32 noundef %121, i32 noundef %124, i32 noundef 0)
  store ptr %125, ptr %8, align 8
  %126 = load ptr, ptr %8, align 8
  %127 = load i32, ptr @ett_uftp_destlist, align 4
  %128 = call ptr @proto_item_add_subtree(ptr noundef %126, i32 noundef %127)
  store ptr %128, ptr %10, align 8
  br label %129

129:                                              ; preds = %117, %113
  store i16 0, ptr %14, align 2
  br label %130

130:                                              ; preds = %144, %129
  %131 = load i16, ptr %14, align 2
  %132 = zext i16 %131 to i32
  %133 = load i16, ptr %12, align 2
  %134 = zext i16 %133 to i32
  %135 = icmp slt i32 %132, %134
  br i1 %135, label %136, label %147

136:                                              ; preds = %130
  %137 = load ptr, ptr %10, align 8
  %138 = load i32, ptr @hf_uftp_dest, align 4
  %139 = load ptr, ptr %4, align 8
  %140 = load i32, ptr %11, align 4
  %141 = call ptr @proto_tree_add_item(ptr noundef %137, i32 noundef %138, ptr noundef %139, i32 noundef %140, i32 noundef 4, i32 noundef 0)
  %142 = load i32, ptr %11, align 4
  %143 = add i32 %142, 4
  store i32 %143, ptr %11, align 4
  br label %144

144:                                              ; preds = %136
  %145 = load i16, ptr %14, align 2
  %146 = add i16 %145, 1
  store i16 %146, ptr %14, align 2
  br label %130, !llvm.loop !8

147:                                              ; preds = %130
  store i32 0, ptr %15, align 4
  br label %148

148:                                              ; preds = %147, %42, %19
  call void @llvm.lifetime.end.p0(i64 2, ptr %14) #3
  call void @llvm.lifetime.end.p0(i64 2, ptr %13) #3
  call void @llvm.lifetime.end.p0(i64 2, ptr %12) #3
  call void @llvm.lifetime.end.p0(i64 4, ptr %11) #3
  call void @llvm.lifetime.end.p0(i64 8, ptr %10) #3
  call void @llvm.lifetime.end.p0(i64 8, ptr %9) #3
  call void @llvm.lifetime.end.p0(i64 8, ptr %8) #3
  call void @llvm.lifetime.end.p0(i64 8, ptr %7) #3
  %149 = load i32, ptr %15, align 4
  switch i32 %149, label %151 [
    i32 0, label %150
    i32 1, label %150
  ]

150:                                              ; preds = %148, %148
  ret void

151:                                              ; preds = %148
  unreachable
}