; Function Attrs: null_pointer_is_valid sspstrong uwtable
define internal fastcc void @dissect_uftp_register(ptr noundef %0, ptr noundef %1, ptr noundef %2) unnamed_addr #0 {
  %4 = tail call i32 @tvb_reported_length(ptr noundef %0)
  %5 = icmp ult i32 %4, 40
  br i1 %5, label %6, label %9

6:                                                ; preds = %3
  %7 = tail call i32 @tvb_reported_length(ptr noundef %0)
  %8 = tail call ptr (ptr, ptr, ptr, ptr, i32, i32, ptr, ...) @proto_tree_add_expert_format(ptr noundef %2, ptr noundef %1, ptr noundef nonnull @ei_uftp_length_invalid, ptr noundef %0, i32 noundef 0, i32 noundef -1, ptr noundef nonnull @.str.289, i32 noundef %7)
  br label %.loopexit

9:                                                ; preds = %3
  %10 = tail call zeroext i16 @tvb_get_ntohs(ptr noundef %0, i32 noundef 4)
  %11 = tail call zeroext i16 @tvb_get_ntohs(ptr noundef %0, i32 noundef 6)
  %12 = tail call i32 @tvb_reported_length(ptr noundef %0)
  %13 = zext i16 %11 to i32
  %14 = add nuw nsw i32 %13, 40
  %15 = zext i16 %10 to i32
  %16 = shl nuw nsw i32 %15, 2
  %17 = add nuw nsw i32 %14, %16
  %18 = icmp slt i32 %12, %17
  br i1 %18, label %19, label %22

19:                                               ; preds = %9
  %20 = tail call i32 @tvb_reported_length(ptr noundef %0)
  %21 = tail call ptr (ptr, ptr, ptr, ptr, i32, i32, ptr, ...) @proto_tree_add_expert_format(ptr noundef %2, ptr noundef %1, ptr noundef nonnull @ei_uftp_length_invalid, ptr noundef %0, i32 noundef 0, i32 noundef -1, ptr noundef nonnull @.str.290, i32 noundef %20, i32 noundef %13, i32 noundef %15)
  br label %.loopexit

22:                                               ; preds = %9
  %23 = load i32, ptr @hf_uftp_register, align 4
  %24 = tail call ptr @proto_tree_add_item(ptr noundef %2, i32 noundef %23, ptr noundef %0, i32 noundef 0, i32 noundef -1, i32 noundef 0)
  %25 = load i32, ptr @ett_uftp_register, align 4
  %26 = tail call ptr @proto_item_add_subtree(ptr noundef %24, i32 noundef %25)
  %27 = load i32, ptr @hf_uftp_register_func, align 4
  %28 = tail call ptr @proto_tree_add_item(ptr noundef %26, i32 noundef %27, ptr noundef %0, i32 noundef 0, i32 noundef 1, i32 noundef 0)
  %29 = load i32, ptr @hf_uftp_register_reserved, align 4
  %30 = tail call ptr @proto_tree_add_item(ptr noundef %26, i32 noundef %29, ptr noundef %0, i32 noundef 1, i32 noundef 3, i32 noundef 0)
  %31 = load i32, ptr @hf_uftp_register_destcount, align 4
  %32 = tail call ptr @proto_tree_add_item(ptr noundef %26, i32 noundef %31, ptr noundef %0, i32 noundef 4, i32 noundef 2, i32 noundef 0)
  %33 = load i32, ptr @hf_uftp_register_premaster_len, align 4
  %34 = tail call ptr @proto_tree_add_item(ptr noundef %26, i32 noundef %33, ptr noundef %0, i32 noundef 6, i32 noundef 2, i32 noundef 0)
  %35 = load i32, ptr @hf_uftp_register_rand2, align 4
  %36 = tail call ptr @proto_tree_add_item(ptr noundef %26, i32 noundef %35, ptr noundef %0, i32 noundef 8, i32 noundef 32, i32 noundef 0)
  %.not = icmp eq i16 %11, 0
  br i1 %.not, label %40, label %37

37:                                               ; preds = %22
  %38 = load i32, ptr @hf_uftp_register_premaster, align 4
  %39 = tail call ptr @proto_tree_add_item(ptr noundef %26, i32 noundef %38, ptr noundef %0, i32 noundef 40, i32 noundef %13, i32 noundef 0)
  br label %40

40:                                               ; preds = %37, %22
  %.061 = phi i32 [ %14, %37 ], [ 40, %22 ]
  %.not64 = icmp eq i16 %10, 0
  br i1 %.not64, label %.loopexit, label %.lr.ph.preheader

.lr.ph.preheader:                                 ; preds = %40
  %41 = load i32, ptr @hf_uftp_destlist, align 4
  %42 = tail call ptr @proto_tree_add_item(ptr noundef %26, i32 noundef %41, ptr noundef %0, i32 noundef %.061, i32 noundef %16, i32 noundef 0)
  %43 = load i32, ptr @ett_uftp_destlist, align 4
  %44 = tail call ptr @proto_item_add_subtree(ptr noundef %42, i32 noundef %43)
  br label %.lr.ph

.lr.ph:                                           ; preds = %.lr.ph.preheader, %.lr.ph
  %.066 = phi i16 [ %48, %.lr.ph ], [ 0, %.lr.ph.preheader ]
  %.165 = phi i32 [ %47, %.lr.ph ], [ %.061, %.lr.ph.preheader ]
  %45 = load i32, ptr @hf_uftp_dest, align 4
  %46 = tail call ptr @proto_tree_add_item(ptr noundef %44, i32 noundef %45, ptr noundef %0, i32 noundef %.165, i32 noundef 4, i32 noundef 0)
  %47 = add nuw nsw i32 %.165, 4
  %48 = add nuw i16 %.066, 1
  %exitcond.not = icmp eq i16 %48, %10
  br i1 %exitcond.not, label %.loopexit, label %.lr.ph, !llvm.loop !8

.loopexit:                                        ; preds = %.lr.ph, %40, %19, %6
  ret void
}